; Function Attrs: nofree noinline norecurse nosync nounwind memory(argmem: read) uwtable
define internal fastcc i64 @XXH3_len_129to240_64b(ptr noalias noundef readonly captures(none) %0, i64 noundef range(i64 129, 241) %1, ptr noalias noundef readonly captures(none) %2, i64 noundef %3) unnamed_addr #13 {
  %5 = mul i64 %1, -7046029288634856825
  %6 = trunc nuw nsw i64 %1 to i32
  br label %7

7:                                                ; preds = %4, %7
  %indvars.iv = phi i64 [ 0, %4 ], [ %indvars.iv.next, %7 ]
  %.02538 = phi i64 [ %5, %4 ], [ %23, %7 ]
  %8 = shl nuw nsw i64 %indvars.iv, 4
  %9 = getelementptr inbounds nuw i8, ptr %0, i64 %8
  %10 = getelementptr inbounds nuw i8, ptr %2, i64 %8
  %.0.copyload.i = load i64, ptr %9, align 1, !noalias !651
  %11 = getelementptr inbounds nuw i8, ptr %9, i64 8
  %.0.copyload.i27 = load i64, ptr %11, align 1, !noalias !651
  %.0.copyload.i28 = load i64, ptr %10, align 1
  %12 = add i64 %.0.copyload.i28, %3
  %13 = xor i64 %12, %.0.copyload.i
  %14 = getelementptr inbounds nuw i8, ptr %10, i64 8
  %.0.copyload.i29 = load i64, ptr %14, align 1
  %15 = sub i64 %.0.copyload.i29, %3
  %16 = xor i64 %15, %.0.copyload.i27
  %17 = zext i64 %13 to i128
  %18 = zext i64 %16 to i128
  %19 = mul nuw i128 %18, %17
  %20 = lshr i128 %19, 64
  %21 = xor i128 %20, %19
  %22 = trunc i128 %21 to i64
  %23 = add i64 %.02538, %22
  %indvars.iv.next = add nuw nsw i64 %indvars.iv, 1
  %exitcond.not = icmp eq i64 %indvars.iv.next, 8
  br i1 %exitcond.not, label %24, label %7

24:                                               ; preds = %7
  %25 = lshr i32 %6, 4
  %26 = lshr i64 %23, 37
  %27 = xor i64 %26, %23
  %28 = mul i64 %27, 1609587791953885689
  %29 = lshr i64 %28, 32
  %30 = xor i64 %29, %28
  %.not = icmp eq i32 %25, 8
  br i1 %.not, label %._crit_edge, label %.lr.ph.preheader

.lr.ph.preheader:                                 ; preds = %24
  %wide.trip.count = zext nneg i32 %25 to i64
  br label %.lr.ph

.lr.ph:                                           ; preds = %.lr.ph.preheader, %.lr.ph
  %indvars.iv44 = phi i64 [ 8, %.lr.ph.preheader ], [ %indvars.iv.next45, %.lr.ph ]
  %.12640 = phi i64 [ %30, %.lr.ph.preheader ], [ %47, %.lr.ph ]
  %31 = shl nsw i64 %indvars.iv44, 4
  %32 = getelementptr inbounds nuw i8, ptr %0, i64 %31
  %33 = getelementptr i8, ptr %2, i64 %31
  %34 = getelementptr i8, ptr %33, i64 -125
  %.0.copyload.i30 = load i64, ptr %32, align 1, !noalias !654
  %35 = getelementptr inbounds nuw i8, ptr %32, i64 8
  %.0.copyload.i31 = load i64, ptr %35, align 1, !noalias !654
  %.0.copyload.i32 = load i64, ptr %34, align 1
  %36 = add i64 %.0.copyload.i32, %3
  %37 = xor i64 %36, %.0.copyload.i30
  %38 = getelementptr i8, ptr %33, i64 -117
  %.0.copyload.i33 = load i64, ptr %38, align 1
  %39 = sub i64 %.0.copyload.i33, %3
  %40 = xor i64 %39, %.0.copyload.i31
  %41 = zext i64 %37 to i128
  %42 = zext i64 %40 to i128
  %43 = mul nuw i128 %42, %41
  %44 = lshr i128 %43, 64
  %45 = xor i128 %44, %43
  %46 = trunc i128 %45 to i64
  %47 = add i64 %.12640, %46
  %indvars.iv.next45 = add nuw nsw i64 %indvars.iv44, 1
  %exitcond47.not = icmp eq i64 %indvars.iv.next45, %wide.trip.count
  br i1 %exitcond47.not, label %._crit_edge, label %.lr.ph

._crit_edge:                                      ; preds = %.lr.ph, %24
  %.126.lcssa = phi i64 [ %30, %24 ], [ %47, %.lr.ph ]
  %48 = getelementptr inbounds nuw i8, ptr %0, i64 %1
  %49 = getelementptr inbounds i8, ptr %48, i64 -16
  %50 = getelementptr inbounds nuw i8, ptr %2, i64 119
  %.0.copyload.i34 = load i64, ptr %49, align 1, !noalias !657
  %51 = getelementptr inbounds i8, ptr %48, i64 -8
  %.0.copyload.i35 = load i64, ptr %51, align 1, !noalias !657
  %.0.copyload.i36 = load i64, ptr %50, align 1
  %52 = add i64 %.0.copyload.i36, %3
  %53 = xor i64 %52, %.0.copyload.i34
  %54 = getelementptr inbounds nuw i8, ptr %2, i64 127
  %.0.copyload.i37 = load i64, ptr %54, align 1
  %55 = sub i64 %.0.copyload.i37, %3
  %56 = xor i64 %55, %.0.copyload.i35
  %57 = zext i64 %53 to i128
  %58 = zext i64 %56 to i128
  %59 = mul nuw i128 %58, %57
  %60 = lshr i128 %59, 64
  %61 = xor i128 %60, %59
  %62 = trunc i128 %61 to i64
  %63 = add i64 %.126.lcssa, %62
  %64 = lshr i64 %63, 37
  %65 = xor i64 %64, %63
  %66 = mul i64 %65, 1609587791953885689
  %67 = lshr i64 %66, 32
  %68 = xor i64 %67, %66
  ret i64 %68
}